target datalayout = "e-m:e-p270:32:32-p271:32:32-p272:64:64-i64:64-i128:128-f80:128-n8:16:32:64-S128"
target triple = "x86_64-pc-linux-gnu"

%union.Value = type { ptr }
%struct.Table = type { ptr, i8, i8, i8, i8, i32, ptr, ptr, ptr, ptr }
%struct.TValue = type { %union.Value, i8 }
%union.Node = type { %struct.NodeKey }
%struct.NodeKey = type { %union.Value, i8, i8, i32, %union.Value }

@absentkey = internal constant { %union.Value, i8, [7 x i8] } { %union.Value zeroinitializer, i8 32, [7 x i8] zeroinitializer }, align 8

; Function Attrs: nounwind uwtable
define internal i32 @retpsetcode(ptr noundef %0, ptr noundef %1) #0 {
  %3 = alloca i32, align 4
  %4 = alloca ptr, align 8
  %5 = alloca ptr, align 8
  store ptr %0, ptr %4, align 8, !tbaa !9
  store ptr %1, ptr %5, align 8, !tbaa !22
  %6 = load ptr, ptr %5, align 8, !tbaa !22
  %7 = getelementptr inbounds nuw %struct.TValue, ptr %6, i32 0, i32 1
  %8 = load i8, ptr %7, align 8, !tbaa !24
  %9 = zext i8 %8 to i32
  %10 = icmp eq i32 %9, 32
  br i1 %10, label %11, label %12

11:                                               ; preds = %2
  store i32 1, ptr %3, align 4
  br label %23

12:                                               ; preds = %2
  %13 = load ptr, ptr %5, align 8, !tbaa !22
  %14 = load ptr, ptr %4, align 8, !tbaa !9
  %15 = getelementptr inbounds nuw %struct.Table, ptr %14, i32 0, i32 7
  %16 = load ptr, ptr %15, align 8, !tbaa !28
  %17 = ptrtoint ptr %13 to i64
  %18 = ptrtoint ptr %16 to i64
  %19 = sub i64 %17, %18
  %20 = sdiv exact i64 %19, 24
  %21 = trunc i64 %20 to i32
  %22 = add nsw i32 %21, 3
  store i32 %22, ptr %3, align 4
  br label %23

23:                                               ; preds = %12, %11
  %24 = load i32, ptr %3, align 4
  ret i32 %24
}

; Function Attrs: nounwind uwtable
define internal ptr @hashint(ptr noundef %0, i64 noundef %1) #0 {
  %3 = alloca ptr, align 8
  %4 = alloca ptr, align 8
  %5 = alloca i64, align 8
  %6 = alloca i64, align 8
  %7 = alloca i32, align 4
  store ptr %0, ptr %4, align 8, !tbaa !9
  store i64 %1, ptr %5, align 8, !tbaa !38
  call void @llvm.lifetime.start.p0(i64 8, ptr %6) #8
  %8 = load i64, ptr %5, align 8, !tbaa !38
  store i64 %8, ptr %6, align 8, !tbaa !38
  %9 = load i64, ptr %6, align 8, !tbaa !38
  %10 = icmp ule i64 %9, 2147483647
  br i1 %10, label %11, label %27

11:                                               ; preds = %2
  %12 = load ptr, ptr %4, align 8, !tbaa !9
  %13 = getelementptr inbounds nuw %struct.Table, ptr %12, i32 0, i32 7
  %14 = load ptr, ptr %13, align 8, !tbaa !28
  %15 = load i64, ptr %6, align 8, !tbaa !38
  %16 = trunc i64 %15 to i32
  %17 = load ptr, ptr %4, align 8, !tbaa !9
  %18 = getelementptr inbounds nuw %struct.Table, ptr %17, i32 0, i32 4
  %19 = load i8, ptr %18, align 1, !tbaa !27
  %20 = zext i8 %19 to i32
  %21 = shl i32 1, %20
  %22 = sub i32 %21, 1
  %23 = or i32 %22, 1
  %24 = srem i32 %16, %23
  %25 = sext i32 %24 to i64
  %26 = getelementptr inbounds %union.Node, ptr %14, i64 %25
  store ptr %26, ptr %3, align 8
  store i32 1, ptr %7, align 4
  br label %42

27:                                               ; preds = %2
  %28 = load ptr, ptr %4, align 8, !tbaa !9
  %29 = getelementptr inbounds nuw %struct.Table, ptr %28, i32 0, i32 7
  %30 = load ptr, ptr %29, align 8, !tbaa !28
  %31 = load i64, ptr %6, align 8, !tbaa !38
  %32 = load ptr, ptr %4, align 8, !tbaa !9
  %33 = getelementptr inbounds nuw %struct.Table, ptr %32, i32 0, i32 4
  %34 = load i8, ptr %33, align 1, !tbaa !27
  %35 = zext i8 %34 to i32
  %36 = shl i32 1, %35
  %37 = sub i32 %36, 1
  %38 = or i32 %37, 1
  %39 = zext i32 %38 to i64
  %40 = urem i64 %31, %39
  %41 = getelementptr inbounds nuw %union.Node, ptr %30, i64 %40
  store ptr %41, ptr %3, align 8
  store i32 1, ptr %7, align 4
  br label %42

42:                                               ; preds = %27, %11
  call void @llvm.lifetime.end.p0(i64 8, ptr %6) #8
  %43 = load ptr, ptr %3, align 8
  ret ptr %43
}

; Function Attrs: nounwind uwtable
define internal i32 @finishnodeset(ptr noundef %0, ptr noundef %1, ptr noundef %2) #0 {
  %4 = alloca i32, align 4
  %5 = alloca ptr, align 8
  %6 = alloca ptr, align 8
  %7 = alloca ptr, align 8
  %8 = alloca ptr, align 8
  %9 = alloca ptr, align 8
  store ptr %0, ptr %5, align 8, !tbaa !9
  store ptr %1, ptr %6, align 8, !tbaa !22
  store ptr %2, ptr %7, align 8, !tbaa !22
  %10 = load ptr, ptr %6, align 8, !tbaa !22
  %11 = getelementptr inbounds nuw %struct.TValue, ptr %10, i32 0, i32 1
  %12 = load i8, ptr %11, align 8, !tbaa !24
  %13 = zext i8 %12 to i32
  %14 = and i32 %13, 15
  %15 = icmp eq i32 %14, 0
  br i1 %15, label %28, label %16

16:                                               ; preds = %3
  call void @llvm.lifetime.start.p0(i64 8, ptr %8) #8
  %17 = load ptr, ptr %6, align 8, !tbaa !22
  store ptr %17, ptr %8, align 8, !tbaa !22
  call void @llvm.lifetime.start.p0(i64 8, ptr %9) #8
  %18 = load ptr, ptr %7, align 8, !tbaa !22
  store ptr %18, ptr %9, align 8, !tbaa !22
  %19 = load ptr, ptr %8, align 8, !tbaa !22
  %20 = getelementptr inbounds nuw %struct.TValue, ptr %19, i32 0, i32 0
  %21 = load ptr, ptr %9, align 8, !tbaa !22
  %22 = getelementptr inbounds nuw %struct.TValue, ptr %21, i32 0, i32 0
  call void @llvm.memcpy.p0.p0.i64(ptr align 8 %20, ptr align 8 %22, i64 8, i1 false), !tbaa.struct !26
  %23 = load ptr, ptr %9, align 8, !tbaa !22
  %24 = getelementptr inbounds nuw %struct.TValue, ptr %23, i32 0, i32 1
  %25 = load i8, ptr %24, align 8, !tbaa !24
  %26 = load ptr, ptr %8, align 8, !tbaa !22
  %27 = getelementptr inbounds nuw %struct.TValue, ptr %26, i32 0, i32 1
  store i8 %25, ptr %27, align 8, !tbaa !24
  call void @llvm.lifetime.end.p0(i64 8, ptr %9) #8
  call void @llvm.lifetime.end.p0(i64 8, ptr %8) #8
  store i32 0, ptr %4, align 4
  br label %32

28:                                               ; preds = %3
  %29 = load ptr, ptr %5, align 8, !tbaa !9
  %30 = load ptr, ptr %6, align 8, !tbaa !22
  %31 = call i32 @retpsetcode(ptr noundef %29, ptr noundef %30)
  store i32 %31, ptr %4, align 4
  br label %32

32:                                               ; preds = %28, %16
  %33 = load i32, ptr %4, align 4
  ret i32 %33
}

; Function Attrs: nounwind uwtable
define internal ptr @getintfromhash(ptr noundef %0, i64 noundef %1) #0 {
  %3 = alloca ptr, align 8
  %4 = alloca ptr, align 8
  %5 = alloca i64, align 8
  %6 = alloca ptr, align 8
  %7 = alloca i32, align 4
  %8 = alloca i32, align 4
  store ptr %0, ptr %4, align 8, !tbaa !9
  store i64 %1, ptr %5, align 8, !tbaa !38
  call void @llvm.lifetime.start.p0(i64 8, ptr %6) #8
  %9 = load ptr, ptr %4, align 8, !tbaa !9
  %10 = load i64, ptr %5, align 8, !tbaa !38
  %11 = call ptr @hashint(ptr noundef %9, i64 noundef %10)
  store ptr %11, ptr %6, align 8, !tbaa !29
  br label %12

12:                                               ; preds = %41, %2
  %13 = load ptr, ptr %6, align 8, !tbaa !29
  %14 = getelementptr inbounds nuw %struct.NodeKey, ptr %13, i32 0, i32 2
  %15 = load i8, ptr %14, align 1, !tbaa !21
  %16 = zext i8 %15 to i32
  %17 = icmp eq i32 %16, 3
  br i1 %17, label %18, label %26

18:                                               ; preds = %12
  %19 = load ptr, ptr %6, align 8, !tbaa !29
  %20 = getelementptr inbounds nuw %struct.NodeKey, ptr %19, i32 0, i32 4
  %21 = load i64, ptr %20, align 8, !tbaa !21
  %22 = load i64, ptr %5, align 8, !tbaa !38
  %23 = icmp eq i64 %21, %22
  br i1 %23, label %24, label %26

24:                                               ; preds = %18
  %25 = load ptr, ptr %6, align 8, !tbaa !29
  store ptr %25, ptr %3, align 8
  store i32 1, ptr %7, align 4
  br label %43

26:                                               ; preds = %18, %12
  call void @llvm.lifetime.start.p0(i64 4, ptr %8) #8
  %27 = load ptr, ptr %6, align 8, !tbaa !29
  %28 = getelementptr inbounds nuw %struct.NodeKey, ptr %27, i32 0, i32 3
  %29 = load i32, ptr %28, align 4, !tbaa !21
  store i32 %29, ptr %8, align 4, !tbaa !19
  %30 = load i32, ptr %8, align 4, !tbaa !19
  %31 = icmp eq i32 %30, 0
  br i1 %31, label %32, label %33

32:                                               ; preds = %26
  store i32 2, ptr %7, align 4
  br label %38

33:                                               ; preds = %26
  %34 = load i32, ptr %8, align 4, !tbaa !19
  %35 = load ptr, ptr %6, align 8, !tbaa !29
  %36 = sext i32 %34 to i64
  %37 = getelementptr inbounds %union.Node, ptr %35, i64 %36
  store ptr %37, ptr %6, align 8, !tbaa !29
  store i32 0, ptr %7, align 4
  br label %38

38:                                               ; preds = %33, %32
  call void @llvm.lifetime.end.p0(i64 4, ptr %8) #8
  %39 = load i32, ptr %7, align 4
  switch i32 %39, label %45 [
    i32 0, label %40
    i32 2, label %42
  ]

40:                                               ; preds = %38
  br label %41

41:                                               ; preds = %40
  br label %12

42:                                               ; preds = %38
  store ptr @absentkey, ptr %3, align 8
  store i32 1, ptr %7, align 4
  br label %43

43:                                               ; preds = %42, %24
  call void @llvm.lifetime.end.p0(i64 8, ptr %6) #8
  %44 = load ptr, ptr %3, align 8
  ret ptr %44

45:                                               ; preds = %38
  unreachable
}

; Function Attrs: nounwind uwtable
define hidden i32 @luaH_psetint(ptr noundef %0, i64 noundef %1, ptr noundef %2) #0 {
  %4 = alloca ptr, align 8
  %5 = alloca i64, align 8
  %6 = alloca ptr, align 8
  store ptr %0, ptr %4, align 8, !tbaa !9
  store i64 %1, ptr %5, align 8, !tbaa !38
  store ptr %2, ptr %6, align 8, !tbaa !22
  %7 = load ptr, ptr %4, align 8, !tbaa !9
  %8 = load ptr, ptr %4, align 8, !tbaa !9
  %9 = load i64, ptr %5, align 8, !tbaa !38
  %10 = call ptr @getintfromhash(ptr noundef %8, i64 noundef %9)
  %11 = load ptr, ptr %6, align 8, !tbaa !22
  %12 = call i32 @finishnodeset(ptr noundef %7, ptr noundef %10, ptr noundef %11)
  ret i32 %12
}

; Function Attrs: nounwind uwtable
define internal i32 @psetint(ptr noundef %0, i64 noundef %1, ptr noundef %2) #0 {
  %4 = alloca ptr, align 8
  %5 = alloca i64, align 8
  %6 = alloca ptr, align 8
  %7 = alloca i32, align 4
  %8 = alloca ptr, align 8
  %9 = alloca i64, align 8
  %10 = alloca ptr, align 8
  store ptr %0, ptr %4, align 8, !tbaa !9
  store i64 %1, ptr %5, align 8, !tbaa !38
  store ptr %2, ptr %6, align 8, !tbaa !22
  call void @llvm.lifetime.start.p0(i64 4, ptr %7) #8
  call void @llvm.lifetime.start.p0(i64 8, ptr %8) #8
  %11 = load ptr, ptr %4, align 8, !tbaa !9
  store ptr %11, ptr %8, align 8, !tbaa !9
  call void @llvm.lifetime.start.p0(i64 8, ptr %9) #8
  %12 = load i64, ptr %5, align 8, !tbaa !38
  %13 = sub i64 %12, 1
  store i64 %13, ptr %9, align 8, !tbaa !38
  %14 = load i64, ptr %9, align 8, !tbaa !38
  %15 = load ptr, ptr %8, align 8, !tbaa !9
  %16 = getelementptr inbounds nuw %struct.Table, ptr %15, i32 0, i32 5
  %17 = load i32, ptr %16, align 4, !tbaa !13
  %18 = zext i32 %17 to i64
  %19 = icmp ult i64 %14, %18
  br i1 %19, label %20, label %65

20:                                               ; preds = %3
  call void @llvm.lifetime.start.p0(i64 8, ptr %10) #8
  %21 = load ptr, ptr %8, align 8, !tbaa !9
  %22 = getelementptr inbounds nuw %struct.Table, ptr %21, i32 0, i32 6
  %23 = load ptr, ptr %22, align 8, !tbaa !20
  %24 = getelementptr inbounds nuw i8, ptr %23, i64 4
  %25 = load i64, ptr %9, align 8, !tbaa !38
  %26 = getelementptr inbounds nuw i8, ptr %24, i64 %25
  store ptr %26, ptr %10, align 8, !tbaa !34
  %27 = load ptr, ptr %8, align 8, !tbaa !9
  %28 = getelementptr inbounds nuw %struct.Table, ptr %27, i32 0, i32 8
  %29 = load ptr, ptr %28, align 8, !tbaa !37
  %30 = icmp eq ptr %29, null
  br i1 %30, label %46, label %31

31:                                               ; preds = %20
  %32 = load ptr, ptr %8, align 8, !tbaa !9
  %33 = getelementptr inbounds nuw %struct.Table, ptr %32, i32 0, i32 8
  %34 = load ptr, ptr %33, align 8, !tbaa !37
  %35 = getelementptr inbounds nuw %struct.Table, ptr %34, i32 0, i32 3
  %36 = load i8, ptr %35, align 2, !tbaa !30
  %37 = zext i8 %36 to i32
  %38 = and i32 %37, 2
  %39 = icmp ne i32 %38, 0
  br i1 %39, label %46, label %40

40:                                               ; preds = %31
  %41 = load ptr, ptr %10, align 8, !tbaa !34
  %42 = load i8, ptr %41, align 1, !tbaa !21
  %43 = zext i8 %42 to i32
  %44 = and i32 %43, 15
  %45 = icmp eq i32 %44, 0
  br i1 %45, label %60, label %46

46:                                               ; preds = %40, %31, %20
  %47 = load ptr, ptr %6, align 8, !tbaa !22
  %48 = getelementptr inbounds nuw %struct.TValue, ptr %47, i32 0, i32 1
  %49 = load i8, ptr %48, align 8, !tbaa !24
  %50 = load ptr, ptr %10, align 8, !tbaa !34
  store i8 %49, ptr %50, align 1, !tbaa !21
  %51 = load ptr, ptr %8, align 8, !tbaa !9
  %52 = getelementptr inbounds nuw %struct.Table, ptr %51, i32 0, i32 6
  %53 = load ptr, ptr %52, align 8, !tbaa !20
  %54 = getelementptr inbounds %union.Value, ptr %53, i64 -1
  %55 = load i64, ptr %9, align 8, !tbaa !38
  %56 = sub i64 0, %55
  %57 = getelementptr inbounds %union.Value, ptr %54, i64 %56
  %58 = load ptr, ptr %6, align 8, !tbaa !22
  %59 = getelementptr inbounds nuw %struct.TValue, ptr %58, i32 0, i32 0
  call void @llvm.memcpy.p0.p0.i64(ptr align 8 %57, ptr align 8 %59, i64 8, i1 false), !tbaa.struct !26
  store i32 0, ptr %7, align 4, !tbaa !19
  br label %64

60:                                               ; preds = %40
  %61 = load i64, ptr %9, align 8, !tbaa !38
  %62 = trunc i64 %61 to i32
  %63 = xor i32 %62, -1
  store i32 %63, ptr %7, align 4, !tbaa !19
  br label %64

64:                                               ; preds = %60, %46
  call void @llvm.lifetime.end.p0(i64 8, ptr %10) #8
  br label %70

65:                                               ; preds = %3
  %66 = load ptr, ptr %8, align 8, !tbaa !9
  %67 = load i64, ptr %5, align 8, !tbaa !38
  %68 = load ptr, ptr %6, align 8, !tbaa !22
  %69 = call i32 @luaH_psetint(ptr noundef %66, i64 noundef %67, ptr noundef %68)
  store i32 %69, ptr %7, align 4, !tbaa !19
  br label %70

70:                                               ; preds = %65, %64
  call void @llvm.lifetime.end.p0(i64 8, ptr %9) #8
  call void @llvm.lifetime.end.p0(i64 8, ptr %8) #8
  %71 = load i32, ptr %7, align 4, !tbaa !19
  call void @llvm.lifetime.end.p0(i64 4, ptr %7) #8
  ret i32 %71
}