; Function Attrs: nofree norecurse nosync nounwind memory(readwrite, inaccessiblemem: none) uwtable
define internal fastcc i32 @psetint(ptr noundef readonly captures(none) %0, i64 noundef %1, ptr noundef readonly captures(none) %2) unnamed_addr #8 {
  %4 = add i64 %1, -1
  %5 = getelementptr inbounds nuw i8, ptr %0, i64 12
  %6 = load i32, ptr %5, align 4, !tbaa !4
  %7 = zext i32 %6 to i64
  %8 = icmp ult i64 %4, %7
  br i1 %8, label %9, label %36

9:                                                ; preds = %3
  %10 = getelementptr inbounds nuw i8, ptr %0, i64 16
  %11 = load ptr, ptr %10, align 8, !tbaa !19
  %12 = getelementptr inbounds nuw i8, ptr %11, i64 4
  %13 = getelementptr inbounds nuw i8, ptr %12, i64 %4
  %14 = getelementptr inbounds nuw i8, ptr %0, i64 32
  %15 = load ptr, ptr %14, align 8, !tbaa !24
  %16 = icmp eq ptr %15, null
  br i1 %16, label %25, label %17

17:                                               ; preds = %9
  %18 = getelementptr inbounds nuw i8, ptr %15, i64 10
  %19 = load i8, ptr %18, align 2, !tbaa !21
  %20 = and i8 %19, 2
  %.not = icmp eq i8 %20, 0
  br i1 %.not, label %21, label %25

21:                                               ; preds = %17
  %22 = load i8, ptr %13, align 1, !tbaa !16
  %23 = and i8 %22, 15
  %24 = icmp eq i8 %23, 0
  br i1 %24, label %33, label %25

25:                                               ; preds = %21, %17, %9
  %26 = getelementptr inbounds nuw i8, ptr %2, i64 8
  %27 = load i8, ptr %26, align 8, !tbaa !14
  store i8 %27, ptr %13, align 1, !tbaa !16
  %28 = load ptr, ptr %10, align 8, !tbaa !19
  %29 = getelementptr inbounds i8, ptr %28, i64 -8
  %30 = sub nsw i64 1, %1
  %31 = getelementptr inbounds %union.Value, ptr %29, i64 %30
  %32 = load i64, ptr %2, align 8, !tbaa !16
  store i64 %32, ptr %31, align 8, !tbaa !16
  br label %luaH_psetint.exit

33:                                               ; preds = %21
  %34 = trunc nuw i64 %4 to i32
  %35 = xor i32 %34, -1
  br label %luaH_psetint.exit

36:                                               ; preds = %3
  %37 = icmp ult i64 %1, 2147483648
  %38 = getelementptr inbounds nuw i8, ptr %0, i64 24
  %39 = load ptr, ptr %38, align 8, !tbaa !18
  br i1 %37, label %40, label %49

40:                                               ; preds = %36
  %41 = trunc nuw nsw i64 %1 to i32
  %42 = getelementptr inbounds nuw i8, ptr %0, i64 11
  %43 = load i8, ptr %42, align 1, !tbaa !20
  %44 = zext nneg i8 %43 to i32
  %notmask9.i.i.i = shl nsw i32 -1, %44
  %45 = xor i32 %notmask9.i.i.i, -1
  %46 = or i32 %45, 1
  %47 = urem i32 %41, %46
  %48 = zext nneg i32 %47 to i64
  br label %hashint.exit.i.i

49:                                               ; preds = %36
  %50 = getelementptr inbounds nuw i8, ptr %0, i64 11
  %51 = load i8, ptr %50, align 1, !tbaa !20
  %52 = zext nneg i8 %51 to i32
  %notmask.i.i.i = shl nsw i32 -1, %52
  %53 = xor i32 %notmask.i.i.i, -1
  %54 = or i32 %53, 1
  %55 = zext nneg i32 %54 to i64
  %56 = urem i64 %1, %55
  br label %hashint.exit.i.i

hashint.exit.i.i:                                 ; preds = %49, %40
  %.sink.i.i.i = phi i64 [ %56, %49 ], [ %48, %40 ]
  %57 = getelementptr inbounds nuw %union.Node, ptr %39, i64 %.sink.i.i.i
  br label %58

58:                                               ; preds = %66, %hashint.exit.i.i
  %.012.i.i = phi ptr [ %57, %hashint.exit.i.i ], [ %71, %66 ]
  %59 = getelementptr inbounds nuw i8, ptr %.012.i.i, i64 9
  %60 = load i8, ptr %59, align 1, !tbaa !16
  %61 = icmp eq i8 %60, 3
  br i1 %61, label %62, label %66

62:                                               ; preds = %58
  %63 = getelementptr inbounds nuw i8, ptr %.012.i.i, i64 16
  %64 = load i64, ptr %63, align 8, !tbaa !16
  %65 = icmp eq i64 %64, %1
  br i1 %65, label %getintfromhash.exit.i, label %66

66:                                               ; preds = %62, %58
  %67 = getelementptr inbounds nuw i8, ptr %.012.i.i, i64 12
  %68 = load i32, ptr %67, align 4, !tbaa !16
  %69 = icmp eq i32 %68, 0
  %70 = sext i32 %68 to i64
  %71 = getelementptr inbounds %union.Node, ptr %.012.i.i, i64 %70
  br i1 %69, label %getintfromhash.exit.i, label %58

getintfromhash.exit.i:                            ; preds = %66, %62
  %.0.i.i = phi ptr [ %.012.i.i, %62 ], [ @absentkey, %66 ]
  %72 = getelementptr inbounds nuw i8, ptr %.0.i.i, i64 8
  %73 = load i8, ptr %72, align 8, !tbaa !14
  %74 = and i8 %73, 15
  %75 = icmp eq i8 %74, 0
  br i1 %75, label %80, label %76

76:                                               ; preds = %getintfromhash.exit.i
  %77 = load i64, ptr %2, align 8, !tbaa !16
  store i64 %77, ptr %.0.i.i, align 8, !tbaa !16
  %78 = getelementptr inbounds nuw i8, ptr %2, i64 8
  %79 = load i8, ptr %78, align 8, !tbaa !14
  store i8 %79, ptr %72, align 8, !tbaa !14
  br label %luaH_psetint.exit

80:                                               ; preds = %getintfromhash.exit.i
  %81 = icmp eq i8 %73, 32
  br i1 %81, label %luaH_psetint.exit, label %82

82:                                               ; preds = %80
  %83 = ptrtoint ptr %.0.i.i to i64
  %84 = ptrtoint ptr %39 to i64
  %85 = sub i64 %83, %84
  %86 = sdiv exact i64 %85, 24
  %87 = trunc i64 %86 to i32
  %88 = add nsw i32 %87, 3
  br label %luaH_psetint.exit

luaH_psetint.exit:                                ; preds = %82, %80, %76, %25, %33
  %.1 = phi i32 [ 0, %25 ], [ %35, %33 ], [ 0, %76 ], [ %88, %82 ], [ 1, %80 ]
  ret i32 %.1
}